target datalayout = "e-m:e-p270:32:32-p271:32:32-p272:64:64-i64:64-i128:128-f80:128-n8:16:32:64-S128"
target triple = "x86_64-pc-linux-gnu"

@mbtcp_desegment = internal global i8 1, align 1

; Function Attrs: null_pointer_is_valid sspstrong uwtable
define internal i32 @dissect_mbtcp_common(ptr noundef %0, ptr noundef %1, ptr noundef %2, ptr noundef %3, ptr noundef %4) #0 {
  %6 = alloca i32, align 4
  %7 = alloca ptr, align 8
  %8 = alloca ptr, align 8
  %9 = alloca ptr, align 8
  %10 = alloca ptr, align 8
  %11 = alloca ptr, align 8
  store ptr %0, ptr %7, align 8
  store ptr %1, ptr %8, align 8
  store ptr %2, ptr %9, align 8
  store ptr %3, ptr %10, align 8
  store ptr %4, ptr %11, align 8
  %12 = load ptr, ptr %7, align 8
  %13 = call zeroext i1 @tvb_bytes_exist(ptr noundef %12, i32 noundef 0, i32 noundef 8)
  br i1 %13, label %15, label %14

14:                                               ; preds = %5
  store i32 0, ptr %6, align 4
  br label %37

15:                                               ; preds = %5
  %16 = load ptr, ptr %7, align 8
  %17 = call zeroext i16 @tvb_get_ntohs(ptr noundef %16, i32 noundef 2)
  %18 = zext i16 %17 to i32
  %19 = icmp ne i32 %18, 0
  br i1 %19, label %20, label %21

20:                                               ; preds = %15
  store i32 0, ptr %6, align 4
  br label %37

21:                                               ; preds = %15
  %22 = load ptr, ptr %7, align 8
  %23 = call zeroext i16 @tvb_get_ntohs(ptr noundef %22, i32 noundef 4)
  %24 = zext i16 %23 to i32
  %25 = icmp slt i32 %24, 2
  br i1 %25, label %26, label %27

26:                                               ; preds = %21
  store i32 0, ptr %6, align 4
  br label %37

27:                                               ; preds = %21
  %28 = load ptr, ptr %7, align 8
  %29 = load ptr, ptr %8, align 8
  %30 = load ptr, ptr %9, align 8
  %31 = load i8, ptr @mbtcp_desegment, align 1, !range !6, !noundef !7
  %32 = trunc i8 %31 to i1
  %33 = load ptr, ptr %11, align 8
  %34 = load ptr, ptr %10, align 8
  call void @tcp_dissect_pdus(ptr noundef %28, ptr noundef %29, ptr noundef %30, i1 noundef zeroext %32, i32 noundef 6, ptr noundef @get_mbtcp_pdu_len, ptr noundef %33, ptr noundef %34)
  %35 = load ptr, ptr %7, align 8
  %36 = call i32 @tvb_captured_length(ptr noundef %35)
  store i32 %36, ptr %6, align 4
  br label %37

37:                                               ; preds = %27, %26, %20, %14
  %38 = load i32, ptr %6, align 4
  ret i32 %38
}

; Function Attrs: null_pointer_is_valid sspstrong uwtable
define internal i32 @dissect_mbtls(ptr noundef %0, ptr noundef %1, ptr noundef %2, ptr noundef %3) #0 {
  %5 = alloca ptr, align 8
  %6 = alloca ptr, align 8
  %7 = alloca ptr, align 8
  %8 = alloca ptr, align 8
  store ptr %0, ptr %5, align 8
  store ptr %1, ptr %6, align 8
  store ptr %2, ptr %7, align 8
  store ptr %3, ptr %8, align 8
  %9 = load ptr, ptr %5, align 8
  %10 = load ptr, ptr %6, align 8
  %11 = load ptr, ptr %7, align 8
  %12 = load ptr, ptr %8, align 8
  %13 = call i32 @dissect_mbtcp_common(ptr noundef %9, ptr noundef %10, ptr noundef %11, ptr noundef %12, ptr noundef @dissect_mbtls_pdu)
  ret i32 %13
}